; ModuleID = '31/1827.c'
source_filename = "31/1827.c"
target datalayout = "e-m:e-p270:32:32-p271:32:32-p272:64:64-i64:64-f80:128-n8:16:32:64-S128"
target triple = "x86_64-pc-linux-gnu"

%struct.stu = type { [100 x i8], %struct.stu* }

@.str = private unnamed_addr constant [4 x i8] c"%s\0A\00", align 1
@.str.1 = private unnamed_addr constant [4 x i8] c"end\00", align 1

; Function Attrs: noinline nounwind uwtable
define dso_local i32 @main() #0 {
  %1 = alloca i32, align 4
  %2 = alloca %struct.stu*, align 8
  store i32 0, i32* %1, align 4
  %3 = call %struct.stu* @create()
  store %struct.stu* %3, %struct.stu** %2, align 8
  br label %4

4:                                                ; preds = %7, %0
  %5 = load %struct.stu*, %struct.stu** %2, align 8
  %6 = icmp ne %struct.stu* %5, null
  br i1 %6, label %7, label %15

7:                                                ; preds = %4
  %8 = load %struct.stu*, %struct.stu** %2, align 8
  %9 = getelementptr inbounds %struct.stu, %struct.stu* %8, i32 0, i32 0
  %10 = getelementptr inbounds [100 x i8], [100 x i8]* %9, i64 0, i64 0
  %11 = call i32 (i8*, ...) @printf(i8* getelementptr inbounds ([4 x i8], [4 x i8]* @.str, i64 0, i64 0), i8* %10)
  %12 = load %struct.stu*, %struct.stu** %2, align 8
  %13 = getelementptr inbounds %struct.stu, %struct.stu* %12, i32 0, i32 1
  %14 = load %struct.stu*, %struct.stu** %13, align 8
  store %struct.stu* %14, %struct.stu** %2, align 8
  br label %4

15:                                               ; preds = %4
  ret i32 0
}

declare dso_local i32 @printf(i8*, ...) #1

; Function Attrs: noinline nounwind uwtable
define dso_local %struct.stu* @create() #0 {
  %1 = alloca %struct.stu*, align 8
  %2 = alloca %struct.stu*, align 8
  %3 = alloca %struct.stu*, align 8
  %4 = alloca %struct.stu*, align 8
  %5 = call noalias i8* @malloc(i64 112) #4
  %6 = bitcast i8* %5 to %struct.stu*
  store %struct.stu* %6, %struct.stu** %2, align 8
  %7 = load %struct.stu*, %struct.stu** %2, align 8
  %8 = getelementptr inbounds %struct.stu, %struct.stu* %7, i32 0, i32 0
  %9 = getelementptr inbounds [100 x i8], [100 x i8]* %8, i64 0, i64 0
  %10 = call i32 (i8*, ...) bitcast (i32 (...)* @gets to i32 (i8*, ...)*)(i8* %9)
  %11 = load %struct.stu*, %struct.stu** %2, align 8
  %12 = getelementptr inbounds %struct.stu, %struct.stu* %11, i32 0, i32 0
  %13 = getelementptr inbounds [100 x i8], [100 x i8]* %12, i64 0, i64 0
  %14 = icmp eq i8* %13, getelementptr inbounds ([4 x i8], [4 x i8]* @.str.1, i64 0, i64 0)
  br i1 %14, label %15, label %19

15:                                               ; preds = %0
  %16 = load %struct.stu*, %struct.stu** %2, align 8
  %17 = bitcast %struct.stu* %16 to i8*
  call void @free(i8* %17) #4
  store %struct.stu* null, %struct.stu** %4, align 8
  %18 = load %struct.stu*, %struct.stu** %4, align 8
  store %struct.stu* %18, %struct.stu** %1, align 8
  br label %49

19:                                               ; preds = %0
  %20 = load %struct.stu*, %struct.stu** %2, align 8
  %21 = getelementptr inbounds %struct.stu, %struct.stu* %20, i32 0, i32 1
  store %struct.stu* null, %struct.stu** %21, align 8
  %22 = load %struct.stu*, %struct.stu** %2, align 8
  store %struct.stu* %22, %struct.stu** %4, align 8
  %23 = load %struct.stu*, %struct.stu** %2, align 8
  store %struct.stu* %23, %struct.stu** %3, align 8
  br label %24

24:                                               ; preds = %46, %19
  %25 = call noalias i8* @malloc(i64 112) #4
  %26 = bitcast i8* %25 to %struct.stu*
  store %struct.stu* %26, %struct.stu** %2, align 8
  %27 = load %struct.stu*, %struct.stu** %3, align 8
  store %struct.stu* %27, %struct.stu** %4, align 8
  %28 = load %struct.stu*, %struct.stu** %2, align 8
  %29 = getelementptr inbounds %struct.stu, %struct.stu* %28, i32 0, i32 0
  %30 = getelementptr inbounds [100 x i8], [100 x i8]* %29, i64 0, i64 0
  %31 = call i32 (i8*, ...) bitcast (i32 (...)* @gets to i32 (i8*, ...)*)(i8* %30)
  %32 = load %struct.stu*, %struct.stu** %2, align 8
  %33 = getelementptr inbounds %struct.stu, %struct.stu* %32, i32 0, i32 0
  %34 = getelementptr inbounds [100 x i8], [100 x i8]* %33, i64 0, i64 0
  %35 = call i32 @strcmp(i8* %34, i8* getelementptr inbounds ([4 x i8], [4 x i8]* @.str.1, i64 0, i64 0)) #5
  %36 = icmp eq i32 %35, 0
  br i1 %36, label %37, label %40

37:                                               ; preds = %24
  %38 = load %struct.stu*, %struct.stu** %2, align 8
  %39 = bitcast %struct.stu* %38 to i8*
  call void @free(i8* %39) #4
  br label %47

40:                                               ; preds = %24
  %41 = load %struct.stu*, %struct.stu** %3, align 8
  %42 = load %struct.stu*, %struct.stu** %2, align 8
  %43 = getelementptr inbounds %struct.stu, %struct.stu* %42, i32 0, i32 1
  store %struct.stu* %41, %struct.stu** %43, align 8
  %44 = load %struct.stu*, %struct.stu** %2, align 8
  store %struct.stu* %44, %struct.stu** %3, align 8
  br label %45

45:                                               ; preds = %40
  br label %46

46:                                               ; preds = %45
  br i1 true, label %24, label %47

47:                                               ; preds = %46, %37
  %48 = load %struct.stu*, %struct.stu** %4, align 8
  store %struct.stu* %48, %struct.stu** %1, align 8
  br label %49

49:                                               ; preds = %47, %15
  %50 = load %struct.stu*, %struct.stu** %1, align 8
  ret %struct.stu* %50
}

; Function Attrs: nounwind
declare dso_local noalias i8* @malloc(i64) #2

declare dso_local i32 @gets(...) #1

; Function Attrs: nounwind
declare dso_local void @free(i8*) #2

; Function Attrs: nounwind readonly
declare dso_local i32 @strcmp(i8*, i8*) #3


!llvm.module.flags = !{!0}
!llvm.ident = !{!1}

!0 = !{i32 1, !"wchar_size", i32 4}
!1 = !{!"clang version 10.0.0-4ubuntu1 "}
