; ModuleID = 'source-C-CXX/30/1827.c'
source_filename = "source-C-CXX/30/1827.c"
target datalayout = "e-m:e-p270:32:32-p271:32:32-p272:64:64-i64:64-f80:128-n8:16:32:64-S128"
target triple = "x86_64-pc-linux-gnu"

%struct.stu = type { [100 x i8], %struct.stu* }

@.str.1 = private unnamed_addr constant [4 x i8] c"end\00", align 1

; Function Attrs: nounwind sspstrong uwtable
define dso_local i32 @main() local_unnamed_addr #0 {
  %1 = tail call %struct.stu* @create()
  %2 = icmp eq %struct.stu* %1, null
  br i1 %2, label %10, label %3

3:                                                ; preds = %0, %3
  %4 = phi %struct.stu* [ %8, %3 ], [ %1, %0 ]
  %5 = getelementptr inbounds %struct.stu, %struct.stu* %4, i64 0, i32 0, i64 0
  %6 = tail call i32 @puts(i8* nonnull %5)
  %7 = getelementptr inbounds %struct.stu, %struct.stu* %4, i64 0, i32 1
  %8 = load %struct.stu*, %struct.stu** %7, align 8, !tbaa !5
  %9 = icmp eq %struct.stu* %8, null
  br i1 %9, label %10, label %3, !llvm.loop !10

10:                                               ; preds = %3, %0
  ret i32 0
}

; Function Attrs: nounwind sspstrong uwtable
define dso_local %struct.stu* @create() local_unnamed_addr #0 {
  %1 = tail call noalias align 16 dereferenceable_or_null(112) i8* @malloc(i64 112) #6
  %2 = bitcast i8* %1 to %struct.stu*
  %3 = getelementptr inbounds %struct.stu, %struct.stu* %2, i64 0, i32 0, i64 0
  %4 = tail call i32 (i8*, ...) bitcast (i32 (...)* @gets to i32 (i8*, ...)*)(i8* %3) #6
  %5 = getelementptr inbounds %struct.stu, %struct.stu* %2, i64 0, i32 1
  store %struct.stu* null, %struct.stu** %5, align 8, !tbaa !5
  %6 = tail call noalias align 16 dereferenceable_or_null(112) i8* @malloc(i64 112) #6
  %7 = bitcast i8* %6 to %struct.stu*
  %8 = getelementptr inbounds %struct.stu, %struct.stu* %7, i64 0, i32 0, i64 0
  %9 = tail call i32 (i8*, ...) bitcast (i32 (...)* @gets to i32 (i8*, ...)*)(i8* %8) #6
  %10 = tail call i32 @strcmp(i8* noundef nonnull dereferenceable(1) %8, i8* noundef nonnull dereferenceable(4) getelementptr inbounds ([4 x i8], [4 x i8]* @.str.1, i64 0, i64 0)) #7
  %11 = icmp eq i32 %10, 0
  br i1 %11, label %12, label %15

12:                                               ; preds = %15, %0
  %13 = phi %struct.stu* [ %2, %0 ], [ %16, %15 ]
  %14 = phi i8* [ %6, %0 ], [ %19, %15 ]
  tail call void @free(i8* %14) #6
  ret %struct.stu* %13

15:                                               ; preds = %0, %15
  %16 = phi %struct.stu* [ %20, %15 ], [ %7, %0 ]
  %17 = phi %struct.stu* [ %16, %15 ], [ %2, %0 ]
  %18 = getelementptr inbounds %struct.stu, %struct.stu* %16, i64 0, i32 1
  store %struct.stu* %17, %struct.stu** %18, align 8, !tbaa !5
  %19 = tail call noalias align 16 dereferenceable_or_null(112) i8* @malloc(i64 112) #6
  %20 = bitcast i8* %19 to %struct.stu*
  %21 = getelementptr inbounds %struct.stu, %struct.stu* %20, i64 0, i32 0, i64 0
  %22 = tail call i32 (i8*, ...) bitcast (i32 (...)* @gets to i32 (i8*, ...)*)(i8* %21) #6
  %23 = tail call i32 @strcmp(i8* noundef nonnull dereferenceable(1) %21, i8* noundef nonnull dereferenceable(4) getelementptr inbounds ([4 x i8], [4 x i8]* @.str.1, i64 0, i64 0)) #7
  %24 = icmp eq i32 %23, 0
  br i1 %24, label %12, label %15
}

; Function Attrs: inaccessiblememonly mustprogress nofree nounwind willreturn
declare noalias noundef align 16 i8* @malloc(i64 noundef) local_unnamed_addr #1

declare i32 @gets(...) local_unnamed_addr #2

; Function Attrs: inaccessiblemem_or_argmemonly mustprogress nounwind willreturn
declare void @free(i8* nocapture noundef) local_unnamed_addr #3

; Function Attrs: argmemonly mustprogress nofree nounwind readonly willreturn
declare i32 @strcmp(i8* nocapture, i8* nocapture) local_unnamed_addr #4

; Function Attrs: nofree nounwind
declare noundef i32 @puts(i8* nocapture noundef readonly) local_unnamed_addr #5


!llvm.module.flags = !{!0, !1, !2, !3}
!llvm.ident = !{!4}

!0 = !{i32 1, !"wchar_size", i32 4}
!1 = !{i32 7, !"PIC Level", i32 2}
!2 = !{i32 7, !"PIE Level", i32 2}
!3 = !{i32 7, !"uwtable", i32 1}
!4 = !{!"clang version 13.0.0"}
!5 = !{!6, !9, i64 104}
!6 = !{!"stu", !7, i64 0, !9, i64 104}
!7 = !{!"omnipotent char", !8, i64 0}
!8 = !{!"Simple C/C++ TBAA"}
!9 = !{!"any pointer", !7, i64 0}
!10 = distinct !{!10, !11}
!11 = !{!"llvm.loop.mustprogress"}
